; ModuleID = 'source-C-CXX/41/740.c'
source_filename = "source-C-CXX/41/740.c"
target datalayout = "e-m:e-p270:32:32-p271:32:32-p272:64:64-i64:64-f80:128-n8:16:32:64-S128"
target triple = "x86_64-pc-linux-gnu"

@.str = private unnamed_addr constant [3 x i8] c"%d\00", align 1
@.str.1 = private unnamed_addr constant [4 x i8] c" %d\00", align 1

; Function Attrs: nofree nounwind sspstrong uwtable
define dso_local i32 @main() local_unnamed_addr #0 {
  %1 = alloca i32, align 4
  %2 = alloca i32, align 4
  %3 = alloca [100000 x i32], align 16
  %4 = bitcast i32* %1 to i8*
  call void @llvm.lifetime.start.p0i8(i64 4, i8* nonnull %4) #3
  %5 = bitcast i32* %2 to i8*
  call void @llvm.lifetime.start.p0i8(i64 4, i8* nonnull %5) #3
  %6 = bitcast [100000 x i32]* %3 to i8*
  call void @llvm.lifetime.start.p0i8(i64 400000, i8* nonnull %6) #3
  %7 = call i32 (i8*, ...) @__isoc99_scanf(i8* getelementptr inbounds ([3 x i8], [3 x i8]* @.str, i64 0, i64 0), i32* nonnull %1)
  %8 = load i32, i32* %1, align 4, !tbaa !5
  %9 = icmp sgt i32 %8, 0
  br i1 %9, label %10, label %20

10:                                               ; preds = %0
  %11 = getelementptr inbounds [100000 x i32], [100000 x i32]* %3, i64 0, i64 0
  br label %12

12:                                               ; preds = %10, %12
  %13 = phi i32* [ %15, %12 ], [ %11, %10 ]
  %14 = phi i32 [ %17, %12 ], [ 0, %10 ]
  %15 = getelementptr inbounds i32, i32* %13, i64 1
  %16 = call i32 (i8*, ...) @__isoc99_scanf(i8* getelementptr inbounds ([3 x i8], [3 x i8]* @.str, i64 0, i64 0), i32* nonnull %13)
  %17 = add nuw nsw i32 %14, 1
  %18 = load i32, i32* %1, align 4, !tbaa !5
  %19 = icmp slt i32 %17, %18
  br i1 %19, label %12, label %20, !llvm.loop !9

20:                                               ; preds = %12, %0
  %21 = call i32 (i8*, ...) @__isoc99_scanf(i8* getelementptr inbounds ([3 x i8], [3 x i8]* @.str, i64 0, i64 0), i32* nonnull %2)
  %22 = load i32, i32* %1, align 4, !tbaa !5
  %23 = load i32, i32* %2, align 4
  %24 = icmp sgt i32 %22, 0
  br i1 %24, label %25, label %39

25:                                               ; preds = %20
  %26 = zext i32 %22 to i64
  br label %27

27:                                               ; preds = %25, %36
  %28 = phi i64 [ 0, %25 ], [ %37, %36 ]
  %29 = getelementptr inbounds [100000 x i32], [100000 x i32]* %3, i64 0, i64 %28
  %30 = load i32, i32* %29, align 4, !tbaa !5
  %31 = icmp eq i32 %30, %23
  br i1 %31, label %36, label %32

32:                                               ; preds = %27
  %33 = trunc i64 %28 to i32
  %34 = call i32 (i8*, ...) @printf(i8* nonnull dereferenceable(1) getelementptr inbounds ([3 x i8], [3 x i8]* @.str, i64 0, i64 0), i32 %30)
  %35 = load i32, i32* %1, align 4, !tbaa !5
  br label %39

36:                                               ; preds = %27
  %37 = add nuw nsw i64 %28, 1
  %38 = icmp eq i64 %37, %26
  br i1 %38, label %39, label %27, !llvm.loop !11

39:                                               ; preds = %36, %20, %32
  %40 = phi i32 [ %35, %32 ], [ %22, %20 ], [ %22, %36 ]
  %41 = phi i32 [ %33, %32 ], [ 0, %20 ], [ %22, %36 ]
  %42 = add i32 %41, 1
  %43 = icmp slt i32 %42, %40
  br i1 %43, label %44, label %61

44:                                               ; preds = %39
  %45 = zext i32 %42 to i64
  br label %46

46:                                               ; preds = %44, %56
  %47 = phi i32 [ %40, %44 ], [ %57, %56 ]
  %48 = phi i64 [ %45, %44 ], [ %58, %56 ]
  %49 = getelementptr inbounds [100000 x i32], [100000 x i32]* %3, i64 0, i64 %48
  %50 = load i32, i32* %49, align 4, !tbaa !5
  %51 = load i32, i32* %2, align 4, !tbaa !5
  %52 = icmp eq i32 %50, %51
  br i1 %52, label %56, label %53

53:                                               ; preds = %46
  %54 = call i32 (i8*, ...) @printf(i8* nonnull dereferenceable(1) getelementptr inbounds ([4 x i8], [4 x i8]* @.str.1, i64 0, i64 0), i32 %50)
  %55 = load i32, i32* %1, align 4, !tbaa !5
  br label %56

56:                                               ; preds = %46, %53
  %57 = phi i32 [ %47, %46 ], [ %55, %53 ]
  %58 = add nuw nsw i64 %48, 1
  %59 = trunc i64 %58 to i32
  %60 = icmp sgt i32 %57, %59
  br i1 %60, label %46, label %61, !llvm.loop !12

61:                                               ; preds = %56, %39
  call void @llvm.lifetime.end.p0i8(i64 400000, i8* nonnull %6) #3
  call void @llvm.lifetime.end.p0i8(i64 4, i8* nonnull %5) #3
  call void @llvm.lifetime.end.p0i8(i64 4, i8* nonnull %4) #3
  ret i32 0
}

; Function Attrs: argmemonly mustprogress nofree nosync nounwind willreturn
declare void @llvm.lifetime.start.p0i8(i64 immarg, i8* nocapture) #1

; Function Attrs: nofree nounwind
declare noundef i32 @__isoc99_scanf(i8* nocapture noundef readonly, ...) local_unnamed_addr #2

; Function Attrs: nofree nounwind
declare noundef i32 @printf(i8* nocapture noundef readonly, ...) local_unnamed_addr #2

; Function Attrs: argmemonly mustprogress nofree nosync nounwind willreturn
declare void @llvm.lifetime.end.p0i8(i64 immarg, i8* nocapture) #1


!llvm.module.flags = !{!0, !1, !2, !3}
!llvm.ident = !{!4}

!0 = !{i32 1, !"wchar_size", i32 4}
!1 = !{i32 7, !"PIC Level", i32 2}
!2 = !{i32 7, !"PIE Level", i32 2}
!3 = !{i32 7, !"uwtable", i32 1}
!4 = !{!"clang version 13.0.0"}
!5 = !{!6, !6, i64 0}
!6 = !{!"int", !7, i64 0}
!7 = !{!"omnipotent char", !8, i64 0}
!8 = !{!"Simple C/C++ TBAA"}
!9 = distinct !{!9, !10}
!10 = !{!"llvm.loop.mustprogress"}
!11 = distinct !{!11, !10}
!12 = distinct !{!12, !10}
